; Function Attrs: mustprogress uwtable
define void @_ZN21ConversationDataModelC2Ei7QStringP7QObject(ptr noundef nonnull align 8 dereferenceable(120) %0, i32 noundef %1, ptr nocapture noundef readonly %2, ptr noundef %3) unnamed_addr #0 align 2 personality ptr @__gxx_personality_v0 {
  %5 = alloca %class.QString, align 8
  %6 = load ptr, ptr %2, align 8
  store ptr %6, ptr %5, align 8
  %7 = getelementptr inbounds i8, ptr %5, i64 8
  %8 = getelementptr inbounds i8, ptr %2, i64 8
  %9 = load ptr, ptr %8, align 8
  store ptr %9, ptr %7, align 8
  %10 = getelementptr inbounds i8, ptr %5, i64 16
  %11 = getelementptr inbounds i8, ptr %2, i64 16
  %12 = load i64, ptr %11, align 8
  store i64 %12, ptr %10, align 8
  %.not.i.i.i = icmp eq ptr %6, null
  br i1 %.not.i.i.i, label %_ZN7QStringC2ERKS_.exit, label %13

13:                                               ; preds = %4
  %14 = atomicrmw add ptr %6, i32 1 seq_cst, align 4
  br label %_ZN7QStringC2ERKS_.exit

_ZN7QStringC2ERKS_.exit:                          ; preds = %4, %13
  invoke void @_ZN13ATapDataModelC2ENS_13dataModelTypeEi7QStringP7QObject(ptr noundef nonnull align 8 dereferenceable(120) %0, i32 noundef 1, i32 noundef %1, ptr noundef nonnull %5, ptr noundef %3)
          to label %15 unwind label %20

15:                                               ; preds = %_ZN7QStringC2ERKS_.exit
  %16 = load ptr, ptr %5, align 8
  %.not.i.i.i4 = icmp eq ptr %16, null
  br i1 %.not.i.i.i4, label %_ZN7QStringD2Ev.exit, label %_ZN17QArrayDataPointerIDsE5derefEv.exit.i.i

_ZN17QArrayDataPointerIDsE5derefEv.exit.i.i:      ; preds = %15
  %17 = atomicrmw sub ptr %16, i32 1 seq_cst, align 4
  %.not.i.i = icmp eq i32 %17, 1
  br i1 %.not.i.i, label %18, label %_ZN7QStringD2Ev.exit

18:                                               ; preds = %_ZN17QArrayDataPointerIDsE5derefEv.exit.i.i
  %19 = load ptr, ptr %5, align 8
  call void @_ZN10QArrayData10deallocateEPS_xx(ptr noundef %19, i64 noundef 2, i64 noundef 8) #23
  br label %_ZN7QStringD2Ev.exit

_ZN7QStringD2Ev.exit:                             ; preds = %15, %_ZN17QArrayDataPointerIDsE5derefEv.exit.i.i, %18
  store ptr getelementptr inbounds ({ [52 x ptr] }, ptr @_ZTV21ConversationDataModel, i64 0, i32 0, i64 2), ptr %0, align 8
  ret void

20:                                               ; preds = %_ZN7QStringC2ERKS_.exit
  %21 = landingpad { ptr, i32 }
          cleanup
  %22 = load ptr, ptr %5, align 8
  %.not.i.i.i5 = icmp eq ptr %22, null
  br i1 %.not.i.i.i5, label %_ZN7QStringD2Ev.exit8, label %_ZN17QArrayDataPointerIDsE5derefEv.exit.i.i6

_ZN17QArrayDataPointerIDsE5derefEv.exit.i.i6:     ; preds = %20
  %23 = atomicrmw sub ptr %22, i32 1 seq_cst, align 4
  %.not.i.i7 = icmp eq i32 %23, 1
  br i1 %.not.i.i7, label %24, label %_ZN7QStringD2Ev.exit8

24:                                               ; preds = %_ZN17QArrayDataPointerIDsE5derefEv.exit.i.i6
  %25 = load ptr, ptr %5, align 8
  call void @_ZN10QArrayData10deallocateEPS_xx(ptr noundef %25, i64 noundef 2, i64 noundef 8) #23
  br label %_ZN7QStringD2Ev.exit8

_ZN7QStringD2Ev.exit8:                            ; preds = %20, %_ZN17QArrayDataPointerIDsE5derefEv.exit.i.i6, %24
  resume { ptr, i32 } %21
}